
CH32V307VCT6_pruebas.elf:     file format elf32-littleriscv
CH32V307VCT6_pruebas.elf
architecture: riscv:rv32, flags 0x00000112:
EXEC_P, HAS_SYMS, D_PAGED
start address 0x00000000

Program Header:
    LOAD off    0x00001000 vaddr 0x00000000 paddr 0x00000000 align 2**12
         filesz 0x000009e8 memsz 0x000009e8 flags r-x
    LOAD off    0x00002000 vaddr 0x20000000 paddr 0x000009e8 align 2**12
         filesz 0x00000028 memsz 0x00000038 flags rw-
    LOAD off    0x00002800 vaddr 0x20007800 paddr 0x20007800 align 2**12
         filesz 0x00000000 memsz 0x00000800 flags rw-

Sections:
Idx Name          Size      VMA       LMA       File off  Algn
  0 .init         00000004  00000000  00000000  00001000  2**1
                  CONTENTS, ALLOC, LOAD, READONLY, CODE
  1 .vector       000001bc  00000004  00000004  00001004  2**1
                  CONTENTS, ALLOC, LOAD, READONLY, CODE
  2 .text         00000828  000001c0  000001c0  000011c0  2**1
                  CONTENTS, ALLOC, LOAD, READONLY, CODE
  3 .fini         00000000  000009e8  000009e8  00002028  2**0
                  CONTENTS, ALLOC, LOAD, CODE
  4 .dalign       00000000  20000000  20000000  00002028  2**0
                  CONTENTS
  5 .dlalign      00000000  000009e8  000009e8  00002028  2**0
                  CONTENTS
  6 .data         00000028  20000000  000009e8  00002000  2**2
                  CONTENTS, ALLOC, LOAD, DATA
  7 .bss          00000010  20000028  00000a10  00002028  2**2
                  ALLOC
  8 .stack        00000800  20007800  20007800  00002800  2**0
                  ALLOC
  9 .debug_info   00009cd5  00000000  00000000  00002028  2**0
                  CONTENTS, READONLY, DEBUGGING
 10 .debug_abbrev 00001cff  00000000  00000000  0000bcfd  2**0
                  CONTENTS, READONLY, DEBUGGING
 11 .debug_aranges 00000520  00000000  00000000  0000da00  2**3
                  CONTENTS, READONLY, DEBUGGING
 12 .debug_ranges 000004e0  00000000  00000000  0000df20  2**3
                  CONTENTS, READONLY, DEBUGGING
 13 .debug_line   00005f0a  00000000  00000000  0000e400  2**0
                  CONTENTS, READONLY, DEBUGGING
 14 .debug_str    00001e03  00000000  00000000  0001430a  2**0
                  CONTENTS, READONLY, DEBUGGING
 15 .comment      00000033  00000000  00000000  0001610d  2**0
                  CONTENTS, READONLY
 16 .debug_frame  000009dc  00000000  00000000  00016140  2**2
                  CONTENTS, READONLY, DEBUGGING
 17 .debug_loc    00001e25  00000000  00000000  00016b1c  2**0
                  CONTENTS, READONLY, DEBUGGING
SYMBOL TABLE:
00000000 l    d  .init	00000000 .init
00000004 l    d  .vector	00000000 .vector
000001c0 l    d  .text	00000000 .text
000009e8 l    d  .fini	00000000 .fini
20000000 l    d  .dalign	00000000 .dalign
000009e8 l    d  .dlalign	00000000 .dlalign
20000000 l    d  .data	00000000 .data
20000028 l    d  .bss	00000000 .bss
20007800 l    d  .stack	00000000 .stack
00000000 l    d  .debug_info	00000000 .debug_info
00000000 l    d  .debug_abbrev	00000000 .debug_abbrev
00000000 l    d  .debug_aranges	00000000 .debug_aranges
00000000 l    d  .debug_ranges	00000000 .debug_ranges
00000000 l    d  .debug_line	00000000 .debug_line
00000000 l    d  .debug_str	00000000 .debug_str
00000000 l    d  .comment	00000000 .comment
00000000 l    d  .debug_frame	00000000 .debug_frame
00000000 l    d  .debug_loc	00000000 .debug_loc
00000000 l    df *ABS*	00000000 ./Startup/startup_ch32v30x_D8C.o
00000004 l       .vector	00000000 _vector_base
00000000 l    df *ABS*	00000000 ch32v30x_it.c
00000000 l    df *ABS*	00000000 gpio.c
00000000 l    df *ABS*	00000000 main.c
00000000 l    df *ABS*	00000000 system_ch32v30x.c
00000000 l    df *ABS*	00000000 tim.c
00000000 l    df *ABS*	00000000 ch32v30x_gpio.c
00000000 l    df *ABS*	00000000 ch32v30x_misc.c
00000000 l    df *ABS*	00000000 ch32v30x_rcc.c
20000010 l     O .data	00000010 APBAHBPrescTable
20000024 l     O .data	00000004 ADCPrescTable
00000000 l    df *ABS*	00000000 ch32v30x_usart.c
00000000 l    df *ABS*	00000000 debug.c
20000034 l     O .bss	00000002 p_ms
20000036 l     O .bss	00000001 p_us
000005ce  w      .text	00000000 EXTI2_IRQHandler
000005ce  w      .text	00000000 TIM8_TRG_COM_IRQHandler
000005ce  w      .text	00000000 TIM8_CC_IRQHandler
000005ce  w      .text	00000000 UART8_IRQHandler
0000071a g     F .text	0000000a GPIO_ReadOutputDataBit
20000820 g       .data	00000000 __global_pointer$
000001c8 g     F .text	00000028 .hidden __riscv_save_8
000005ce  w      .text	00000000 TIM1_CC_IRQHandler
20000028 g     O .bss	00000008 lLed2Timer
00000222 g     F .text	00000010 HardFault_Handler
00000214 g     F .text	0000000c .hidden __riscv_restore_3
000005ce  w      .text	00000000 TIM6_IRQHandler
00000276 g     F .text	0000006a SysTick_Handler
000005ce  w      .text	00000000 PVD_IRQHandler
000005ce  w      .text	00000000 SDIO_IRQHandler
000005ce  w      .text	00000000 TIM9_BRK_IRQHandler
00000200 g     F .text	00000020 .hidden __riscv_restore_10
000005ce  w      .text	00000000 DMA2_Channel8_IRQHandler
00000220 g     F .text	00000002 NMI_Handler
000005ce  w      .text	00000000 CAN2_RX1_IRQHandler
000005ce  w      .text	00000000 EXTI3_IRQHandler
000001c8 g     F .text	00000028 .hidden __riscv_save_11
000005ce  w      .text	00000000 USBHS_IRQHandler
000005ce  w      .text	00000000 DMA2_Channel9_IRQHandler
000005ce  w      .text	00000000 TIM10_CC_IRQHandler
20000028 g       .bss	00000000 _sbss
00000800 g       *ABS*	00000000 __stack_size
00000994 g     F .text	00000052 USART_Printf_Init
000005ce  w      .text	00000000 USBFS_IRQHandler
00000214 g     F .text	0000000c .hidden __riscv_restore_2
000005ce  w      .text	00000000 EXTI0_IRQHandler
000005ce  w      .text	00000000 I2C2_EV_IRQHandler
000005ce  w      .text	00000000 TIM10_TRG_COM_IRQHandler
20000020 g     O .data	00000004 SystemCoreClock
00000004 g       .init	00000000 _einit
000008aa g     F .text	0000001e RCC_APB2PeriphClockCmd
000001c0 g     F .text	00000030 .hidden __riscv_save_12
000005ce  w      .text	00000000 CAN2_SCE_IRQHandler
000005ce  w      .text	00000000 ADC1_2_IRQHandler
0000065a g     F .text	000000c0 GPIO_Init
000005ce  w      .text	00000000 Break_Point_Handler
00000200 g     F .text	00000020 .hidden __riscv_restore_11
20000030 g     O .bss	00000004 NVIC_Priority_Group
000005ce  w      .text	00000000 SPI1_IRQHandler
00000954 g     F .text	00000016 USART_Cmd
000005ce  w      .text	00000000 TAMPER_IRQHandler
000001f0 g     F .text	0000000c .hidden __riscv_save_1
00000214 g     F .text	0000000c .hidden __riscv_restore_0
000001d6 g     F .text	0000001a .hidden __riscv_save_7
000005ce  w      .text	00000000 CAN2_RX0_IRQHandler
000005ce  w      .text	00000000 TIM8_UP_IRQHandler
000005ce  w      .text	00000000 Ecall_M_Mode_Handler
20007800 g       .stack	00000000 _heap_end
000002e0 g     F .text	00000016 vTim_softwareTimersInit
0000020a g     F .text	00000016 .hidden __riscv_restore_5
00000232 g     F .text	0000002a vGPIO_led2Init
000005ce  w      .text	00000000 DMA2_Channel2_IRQHandler
000005ce  w      .text	00000000 DMA1_Channel4_IRQHandler
000005ce  w      .text	00000000 TIM9_UP_IRQHandler
0000020a g     F .text	00000016 .hidden __riscv_restore_6
000005ce  w      .text	00000000 USART3_IRQHandler
000005ce  w      .text	00000000 RTC_IRQHandler
20000038 g       .bss	00000000 _ebss
000005ce  w      .text	00000000 DMA1_Channel7_IRQHandler
000005ce  w      .text	00000000 CAN1_RX1_IRQHandler
0000096a g     F .text	0000002a Delay_Init
000005ce  w      .text	00000000 DVP_IRQHandler
000005ce  w      .text	00000000 UART5_IRQHandler
000005ce  w      .text	00000000 TIM4_IRQHandler
000001c8 g     F .text	00000028 .hidden __riscv_save_9
00000724 g     F .text	0000000a GPIO_WriteBit
000005ce  w      .text	00000000 DMA2_Channel1_IRQHandler
000001d6 g     F .text	0000001a .hidden __riscv_save_4
000005ce  w      .text	00000000 I2C1_EV_IRQHandler
00000576 g     F .text	00000016 vTim_updateCounter
00000734 g     F .text	00000176 RCC_GetClocksFreq
000005ce  w      .text	00000000 DMA1_Channel6_IRQHandler
000005ce  w      .text	00000000 UART4_IRQHandler
000005ce  w      .text	00000000 DMA2_Channel4_IRQHandler
000008c8 g     F .text	0000008c USART_Init
000005ce  w      .text	00000000 TIM3_IRQHandler
000005ce  w      .text	00000000 RCC_IRQHandler
000001f0 g     F .text	0000000c .hidden __riscv_save_3
000005ce  w      .text	00000000 TIM1_TRG_COM_IRQHandler
000005ce  w      .text	00000000 DMA1_Channel1_IRQHandler
00000000 g       .init	00000000 _start
000005ce  w      .text	00000000 DMA2_Channel7_IRQHandler
20000000 g     O .data	00000010 AHBPrescTable
00000552 g     F .text	0000000a bTim_isRunning
000005ce  w      .text	00000000 EXTI15_10_IRQHandler
00000590 g     F .text	0000003e vTim_sysTickInit
000005ce  w      .text	00000000 TIM7_IRQHandler
000005ce  w      .text	00000000 CAN2_TX_IRQHandler
20000000 g       .dalign	00000000 _data_vma
000005ce  w      .text	00000000 TIM5_IRQHandler
000005ce  w      .text	00000000 EXTI9_5_IRQHandler
000001c8 g     F .text	00000028 .hidden __riscv_save_10
000005ce  w      .text	00000000 ETH_WKUP_IRQHandler
0000020a g     F .text	00000016 .hidden __riscv_restore_4
00000200 g     F .text	00000020 .hidden __riscv_restore_8
000001d6 g     F .text	0000001a .hidden __riscv_save_6
000005ce  w      .text	00000000 SPI2_IRQHandler
00000200 g     F .text	00000020 .hidden __riscv_restore_9
0000020a g     F .text	00000016 .hidden __riscv_restore_7
000002f6 g     F .text	00000034 main
0000025c g     F .text	0000001a xGPIO_togglePin
000005ce  w      .text	00000000 TIM10_BRK_IRQHandler
000005ce  w      .text	00000000 TIM9_CC_IRQHandler
000005ce  w      .text	00000000 DMA2_Channel5_IRQHandler
000005ce  w      .text	00000000 DMA1_Channel5_IRQHandler
00000566 g     F .text	0000000a vTim_resetTimer
000005ce  w      .text	00000000 EXTI4_IRQHandler
000005ce  w      .text	00000000 USB_LP_CAN1_RX0_IRQHandler
0000032a g     F .text	000000fa SystemInit
000005ce  w      .text	00000000 RNG_IRQHandler
000005ce  w      .text	00000000 USB_HP_CAN1_TX_IRQHandler
00000000 g       .init	00000000 _sinit
00000570 g     F .text	00000006 vTim_startTimer
000005ce  w      .text	00000000 DMA1_Channel3_IRQHandler
0000058c g     F .text	00000004 vTim_setTimeout
000005ce  w      .text	00000000 ETH_IRQHandler
000005ce  w      .text	00000000 TIM1_UP_IRQHandler
000005ce  w      .text	00000000 WWDG_IRQHandler
000005ce  w      .text	00000000 USBHSWakeup_IRQHandler
000005ce  w      .text	00000000 DMA2_Channel11_IRQHandler
000005ce  w      .text	00000000 Ecall_U_Mode_Handler
000005ce  w      .text	00000000 DMA2_Channel6_IRQHandler
000005ce  w      .text	00000000 TIM2_IRQHandler
20008000 g       .stack	00000000 _eusrstack
000001f0 g     F .text	0000000c .hidden __riscv_save_2
000005ce  w      .text	00000000 SW_Handler
000005ce  w      .text	00000000 TIM1_BRK_IRQHandler
000005ce  w      .text	00000000 DMA2_Channel10_IRQHandler
000005ce  w      .text	00000000 EXTI1_IRQHandler
000001d6 g     F .text	0000001a .hidden __riscv_save_5
20000028 g       .data	00000000 _edata
20000038 g       .bss	00000000 _end
000005ce  w      .text	00000000 RTCAlarm_IRQHandler
000009e8 g       .dlalign	00000000 _data_lma
000005ce  w      .text	00000000 TIM10_UP_IRQHandler
000005ce  w      .text	00000000 TIM9_TRG_COM_IRQHandler
000005ce  w      .text	00000000 UART7_IRQHandler
000005ce  w      .text	00000000 USART2_IRQHandler
000005ce  w      .text	00000000 UART6_IRQHandler
00000424 g     F .text	0000012e SystemCoreClockUpdate
000005ce  w      .text	00000000 I2C2_ER_IRQHandler
000005ce  w      .text	00000000 DMA1_Channel2_IRQHandler
000001fc g     F .text	00000024 .hidden __riscv_restore_12
000005ce  w      .text	00000000 TIM8_BRK_IRQHandler
000005d0  w      .text	00000000 handle_reset
000005ce  w      .text	00000000 CAN1_SCE_IRQHandler
000001f0 g     F .text	0000000c .hidden __riscv_save_0
000005ce  w      .text	00000000 FLASH_IRQHandler
000005ce  w      .text	00000000 USART1_IRQHandler
000005ce  w      .text	00000000 SPI3_IRQHandler
000005ce  w      .text	00000000 I2C1_ER_IRQHandler
0000072e g     F .text	00000006 NVIC_PriorityGroupConfig
00000214 g     F .text	0000000c .hidden __riscv_restore_1
000005ce  w      .text	00000000 USBWakeUp_IRQHandler
0000055c g     F .text	0000000a bTim_isTimeout
000005ce  w      .text	00000000 DMA2_Channel3_IRQHandler



Disassembly of section .init:

00000000 <_sinit>:
   0:	5d00006f          	j	5d0 <handle_reset>

Disassembly of section .vector:

00000004 <_vector_base>:
	...
   c:	0220                	addi	s0,sp,264
   e:	0000                	unimp
  10:	0222                	slli	tp,tp,0x8
  12:	0000                	unimp
  14:	0000                	unimp
  16:	0000                	unimp
  18:	05ce                	slli	a1,a1,0x13
	...
  22:	0000                	unimp
  24:	05ce                	slli	a1,a1,0x13
  26:	0000                	unimp
  28:	05ce                	slli	a1,a1,0x13
	...
  32:	0000                	unimp
  34:	0276                	slli	tp,tp,0x1d
  36:	0000                	unimp
  38:	0000                	unimp
  3a:	0000                	unimp
  3c:	05ce                	slli	a1,a1,0x13
  3e:	0000                	unimp
  40:	0000                	unimp
  42:	0000                	unimp
  44:	05ce                	slli	a1,a1,0x13
  46:	0000                	unimp
  48:	05ce                	slli	a1,a1,0x13
  4a:	0000                	unimp
  4c:	05ce                	slli	a1,a1,0x13
  4e:	0000                	unimp
  50:	05ce                	slli	a1,a1,0x13
  52:	0000                	unimp
  54:	05ce                	slli	a1,a1,0x13
  56:	0000                	unimp
  58:	05ce                	slli	a1,a1,0x13
  5a:	0000                	unimp
  5c:	05ce                	slli	a1,a1,0x13
  5e:	0000                	unimp
  60:	05ce                	slli	a1,a1,0x13
  62:	0000                	unimp
  64:	05ce                	slli	a1,a1,0x13
  66:	0000                	unimp
  68:	05ce                	slli	a1,a1,0x13
  6a:	0000                	unimp
  6c:	05ce                	slli	a1,a1,0x13
  6e:	0000                	unimp
  70:	05ce                	slli	a1,a1,0x13
  72:	0000                	unimp
  74:	05ce                	slli	a1,a1,0x13
  76:	0000                	unimp
  78:	05ce                	slli	a1,a1,0x13
  7a:	0000                	unimp
  7c:	05ce                	slli	a1,a1,0x13
  7e:	0000                	unimp
  80:	05ce                	slli	a1,a1,0x13
  82:	0000                	unimp
  84:	05ce                	slli	a1,a1,0x13
  86:	0000                	unimp
  88:	05ce                	slli	a1,a1,0x13
  8a:	0000                	unimp
  8c:	05ce                	slli	a1,a1,0x13
  8e:	0000                	unimp
  90:	05ce                	slli	a1,a1,0x13
  92:	0000                	unimp
  94:	05ce                	slli	a1,a1,0x13
  96:	0000                	unimp
  98:	05ce                	slli	a1,a1,0x13
  9a:	0000                	unimp
  9c:	05ce                	slli	a1,a1,0x13
  9e:	0000                	unimp
  a0:	05ce                	slli	a1,a1,0x13
  a2:	0000                	unimp
  a4:	05ce                	slli	a1,a1,0x13
  a6:	0000                	unimp
  a8:	05ce                	slli	a1,a1,0x13
  aa:	0000                	unimp
  ac:	05ce                	slli	a1,a1,0x13
  ae:	0000                	unimp
  b0:	05ce                	slli	a1,a1,0x13
  b2:	0000                	unimp
  b4:	05ce                	slli	a1,a1,0x13
  b6:	0000                	unimp
  b8:	05ce                	slli	a1,a1,0x13
  ba:	0000                	unimp
  bc:	05ce                	slli	a1,a1,0x13
  be:	0000                	unimp
  c0:	05ce                	slli	a1,a1,0x13
  c2:	0000                	unimp
  c4:	05ce                	slli	a1,a1,0x13
  c6:	0000                	unimp
  c8:	05ce                	slli	a1,a1,0x13
  ca:	0000                	unimp
  cc:	05ce                	slli	a1,a1,0x13
  ce:	0000                	unimp
  d0:	05ce                	slli	a1,a1,0x13
  d2:	0000                	unimp
  d4:	05ce                	slli	a1,a1,0x13
  d6:	0000                	unimp
  d8:	05ce                	slli	a1,a1,0x13
  da:	0000                	unimp
  dc:	05ce                	slli	a1,a1,0x13
  de:	0000                	unimp
  e0:	05ce                	slli	a1,a1,0x13
  e2:	0000                	unimp
  e4:	05ce                	slli	a1,a1,0x13
  e6:	0000                	unimp
  e8:	05ce                	slli	a1,a1,0x13
  ea:	0000                	unimp
  ec:	05ce                	slli	a1,a1,0x13
  ee:	0000                	unimp
  f0:	05ce                	slli	a1,a1,0x13
  f2:	0000                	unimp
  f4:	05ce                	slli	a1,a1,0x13
  f6:	0000                	unimp
  f8:	05ce                	slli	a1,a1,0x13
  fa:	0000                	unimp
  fc:	05ce                	slli	a1,a1,0x13
  fe:	0000                	unimp
 100:	05ce                	slli	a1,a1,0x13
 102:	0000                	unimp
 104:	0000                	unimp
 106:	0000                	unimp
 108:	05ce                	slli	a1,a1,0x13
 10a:	0000                	unimp
 10c:	05ce                	slli	a1,a1,0x13
 10e:	0000                	unimp
 110:	05ce                	slli	a1,a1,0x13
 112:	0000                	unimp
 114:	05ce                	slli	a1,a1,0x13
 116:	0000                	unimp
 118:	05ce                	slli	a1,a1,0x13
 11a:	0000                	unimp
 11c:	05ce                	slli	a1,a1,0x13
 11e:	0000                	unimp
 120:	05ce                	slli	a1,a1,0x13
 122:	0000                	unimp
 124:	05ce                	slli	a1,a1,0x13
 126:	0000                	unimp
 128:	05ce                	slli	a1,a1,0x13
 12a:	0000                	unimp
 12c:	05ce                	slli	a1,a1,0x13
 12e:	0000                	unimp
 130:	05ce                	slli	a1,a1,0x13
 132:	0000                	unimp
 134:	05ce                	slli	a1,a1,0x13
 136:	0000                	unimp
 138:	05ce                	slli	a1,a1,0x13
 13a:	0000                	unimp
 13c:	05ce                	slli	a1,a1,0x13
 13e:	0000                	unimp
 140:	05ce                	slli	a1,a1,0x13
 142:	0000                	unimp
 144:	05ce                	slli	a1,a1,0x13
 146:	0000                	unimp
 148:	05ce                	slli	a1,a1,0x13
 14a:	0000                	unimp
 14c:	05ce                	slli	a1,a1,0x13
 14e:	0000                	unimp
 150:	05ce                	slli	a1,a1,0x13
 152:	0000                	unimp
 154:	05ce                	slli	a1,a1,0x13
 156:	0000                	unimp
 158:	05ce                	slli	a1,a1,0x13
 15a:	0000                	unimp
 15c:	05ce                	slli	a1,a1,0x13
 15e:	0000                	unimp
 160:	05ce                	slli	a1,a1,0x13
 162:	0000                	unimp
 164:	05ce                	slli	a1,a1,0x13
 166:	0000                	unimp
 168:	05ce                	slli	a1,a1,0x13
 16a:	0000                	unimp
 16c:	05ce                	slli	a1,a1,0x13
 16e:	0000                	unimp
 170:	05ce                	slli	a1,a1,0x13
 172:	0000                	unimp
 174:	05ce                	slli	a1,a1,0x13
 176:	0000                	unimp
 178:	05ce                	slli	a1,a1,0x13
 17a:	0000                	unimp
 17c:	05ce                	slli	a1,a1,0x13
 17e:	0000                	unimp
 180:	05ce                	slli	a1,a1,0x13
 182:	0000                	unimp
 184:	05ce                	slli	a1,a1,0x13
 186:	0000                	unimp
 188:	05ce                	slli	a1,a1,0x13
 18a:	0000                	unimp
 18c:	05ce                	slli	a1,a1,0x13
 18e:	0000                	unimp
 190:	05ce                	slli	a1,a1,0x13
 192:	0000                	unimp
 194:	05ce                	slli	a1,a1,0x13
 196:	0000                	unimp
 198:	05ce                	slli	a1,a1,0x13
 19a:	0000                	unimp
 19c:	05ce                	slli	a1,a1,0x13
 19e:	0000                	unimp
 1a0:	05ce                	slli	a1,a1,0x13
	...

Disassembly of section .text:

000001c0 <__riscv_save_12>:
 1c0:	7139                	addi	sp,sp,-64
 1c2:	4301                	li	t1,0
 1c4:	c66e                	sw	s11,12(sp)
 1c6:	a019                	j	1cc <__riscv_save_10+0x4>

000001c8 <__riscv_save_10>:
 1c8:	7139                	addi	sp,sp,-64
 1ca:	5341                	li	t1,-16
 1cc:	c86a                	sw	s10,16(sp)
 1ce:	ca66                	sw	s9,20(sp)
 1d0:	cc62                	sw	s8,24(sp)
 1d2:	ce5e                	sw	s7,28(sp)
 1d4:	a019                	j	1da <__riscv_save_4+0x4>

000001d6 <__riscv_save_4>:
 1d6:	7139                	addi	sp,sp,-64
 1d8:	5301                	li	t1,-32
 1da:	d05a                	sw	s6,32(sp)
 1dc:	d256                	sw	s5,36(sp)
 1de:	d452                	sw	s4,40(sp)
 1e0:	d64e                	sw	s3,44(sp)
 1e2:	d84a                	sw	s2,48(sp)
 1e4:	da26                	sw	s1,52(sp)
 1e6:	dc22                	sw	s0,56(sp)
 1e8:	de06                	sw	ra,60(sp)
 1ea:	40610133          	sub	sp,sp,t1
 1ee:	8282                	jr	t0

000001f0 <__riscv_save_0>:
 1f0:	1141                	addi	sp,sp,-16
 1f2:	c04a                	sw	s2,0(sp)
 1f4:	c226                	sw	s1,4(sp)
 1f6:	c422                	sw	s0,8(sp)
 1f8:	c606                	sw	ra,12(sp)
 1fa:	8282                	jr	t0

000001fc <__riscv_restore_12>:
 1fc:	4db2                	lw	s11,12(sp)
 1fe:	0141                	addi	sp,sp,16

00000200 <__riscv_restore_10>:
 200:	4d02                	lw	s10,0(sp)
 202:	4c92                	lw	s9,4(sp)
 204:	4c22                	lw	s8,8(sp)
 206:	4bb2                	lw	s7,12(sp)
 208:	0141                	addi	sp,sp,16

0000020a <__riscv_restore_4>:
 20a:	4b02                	lw	s6,0(sp)
 20c:	4a92                	lw	s5,4(sp)
 20e:	4a22                	lw	s4,8(sp)
 210:	49b2                	lw	s3,12(sp)
 212:	0141                	addi	sp,sp,16

00000214 <__riscv_restore_0>:
 214:	4902                	lw	s2,0(sp)
 216:	4492                	lw	s1,4(sp)
 218:	4422                	lw	s0,8(sp)
 21a:	40b2                	lw	ra,12(sp)
 21c:	0141                	addi	sp,sp,16
 21e:	8082                	ret

00000220 <NMI_Handler>:
 220:	a001                	j	220 <NMI_Handler>

00000222 <HardFault_Handler>:
 222:	beef07b7          	lui	a5,0xbeef0
 226:	e000e737          	lui	a4,0xe000e
 22a:	08078793          	addi	a5,a5,128 # beef0080 <_eusrstack+0x9eee8080>
 22e:	c73c                	sw	a5,72(a4)
 230:	a001                	j	230 <HardFault_Handler+0xe>

00000232 <vGPIO_led2Init>:
 232:	fbfff2ef          	jal	t0,1f0 <__riscv_save_0>
 236:	1141                	addi	sp,sp,-16
 238:	842a                	mv	s0,a0
 23a:	4585                	li	a1,1
 23c:	4541                	li	a0,16
 23e:	c202                	sw	zero,4(sp)
 240:	c402                	sw	zero,8(sp)
 242:	c602                	sw	zero,12(sp)
 244:	259d                	jal	8aa <RCC_APB2PeriphClockCmd>
 246:	4785                	li	a5,1
 248:	827c                	sh	a5,4(sp)
 24a:	004c                	addi	a1,sp,4
 24c:	47c1                	li	a5,16
 24e:	40011537          	lui	a0,0x40011
 252:	c63e                	sw	a5,12(sp)
 254:	c422                	sw	s0,8(sp)
 256:	2111                	jal	65a <GPIO_Init>
 258:	0141                	addi	sp,sp,16
 25a:	bf6d                	j	214 <__riscv_restore_0>

0000025c <xGPIO_togglePin>:
 25c:	f95ff2ef          	jal	t0,1f0 <__riscv_save_0>
 260:	84aa                	mv	s1,a0
 262:	892e                	mv	s2,a1
 264:	295d                	jal	71a <GPIO_ReadOutputDataBit>
 266:	00153413          	seqz	s0,a0
 26a:	8622                	mv	a2,s0
 26c:	8526                	mv	a0,s1
 26e:	85ca                	mv	a1,s2
 270:	2955                	jal	724 <GPIO_WriteBit>
 272:	8522                	mv	a0,s0
 274:	b745                	j	214 <__riscv_restore_0>

00000276 <SysTick_Handler>:
 276:	715d                	addi	sp,sp,-80
 278:	d23e                	sw	a5,36(sp)
 27a:	e000f7b7          	lui	a5,0xe000f
 27e:	d636                	sw	a3,44(sp)
 280:	43d4                	lw	a3,4(a5)
 282:	d43a                	sw	a4,40(sp)
 284:	c686                	sw	ra,76(sp)
 286:	c496                	sw	t0,72(sp)
 288:	c29a                	sw	t1,68(sp)
 28a:	c09e                	sw	t2,64(sp)
 28c:	de22                	sw	s0,60(sp)
 28e:	dc2a                	sw	a0,56(sp)
 290:	da2e                	sw	a1,52(sp)
 292:	d832                	sw	a2,48(sp)
 294:	d042                	sw	a6,32(sp)
 296:	ce46                	sw	a7,28(sp)
 298:	cc72                	sw	t3,24(sp)
 29a:	ca76                	sw	t4,20(sp)
 29c:	c87a                	sw	t5,16(sp)
 29e:	c67e                	sw	t6,12(sp)
 2a0:	4705                	li	a4,1
 2a2:	00e69b63          	bne	a3,a4,2b8 <SysTick_Handler+0x42>
 2a6:	0007a223          	sw	zero,4(a5) # e000f004 <_eusrstack+0xc0007004>
 2aa:	80818513          	addi	a0,gp,-2040 # 20000028 <_edata>
 2ae:	2455                	jal	552 <bTim_isRunning>
 2b0:	c501                	beqz	a0,2b8 <SysTick_Handler+0x42>
 2b2:	80818513          	addi	a0,gp,-2040 # 20000028 <_edata>
 2b6:	24c1                	jal	576 <vTim_updateCounter>
 2b8:	5472                	lw	s0,60(sp)
 2ba:	40b6                	lw	ra,76(sp)
 2bc:	42a6                	lw	t0,72(sp)
 2be:	4316                	lw	t1,68(sp)
 2c0:	4386                	lw	t2,64(sp)
 2c2:	5562                	lw	a0,56(sp)
 2c4:	55d2                	lw	a1,52(sp)
 2c6:	5642                	lw	a2,48(sp)
 2c8:	56b2                	lw	a3,44(sp)
 2ca:	5722                	lw	a4,40(sp)
 2cc:	5792                	lw	a5,36(sp)
 2ce:	5802                	lw	a6,32(sp)
 2d0:	48f2                	lw	a7,28(sp)
 2d2:	4e62                	lw	t3,24(sp)
 2d4:	4ed2                	lw	t4,20(sp)
 2d6:	4f42                	lw	t5,16(sp)
 2d8:	4fb2                	lw	t6,12(sp)
 2da:	6161                	addi	sp,sp,80
 2dc:	30200073          	mret

000002e0 <vTim_softwareTimersInit>:
 2e0:	f11ff2ef          	jal	t0,1f0 <__riscv_save_0>
 2e4:	3e800593          	li	a1,1000
 2e8:	80818513          	addi	a0,gp,-2040 # 20000028 <_edata>
 2ec:	2445                	jal	58c <vTim_setTimeout>
 2ee:	80818513          	addi	a0,gp,-2040 # 20000028 <_edata>
 2f2:	2cbd                	jal	570 <vTim_startTimer>
 2f4:	b705                	j	214 <__riscv_restore_0>

000002f6 <main>:
 2f6:	efbff2ef          	jal	t0,1f0 <__riscv_save_0>
 2fa:	4509                	li	a0,2
 2fc:	290d                	jal	72e <NVIC_PriorityGroupConfig>
 2fe:	221d                	jal	424 <SystemCoreClockUpdate>
 300:	25ad                	jal	96a <Delay_Init>
 302:	6571                	lui	a0,0x1c
 304:	20050513          	addi	a0,a0,512 # 1c200 <_data_lma+0x1b818>
 308:	2571                	jal	994 <USART_Printf_Init>
 30a:	2459                	jal	590 <vTim_sysTickInit>
 30c:	3fd1                	jal	2e0 <vTim_softwareTimersInit>
 30e:	450d                	li	a0,3
 310:	370d                	jal	232 <vGPIO_led2Init>
 312:	80818513          	addi	a0,gp,-2040 # 20000028 <_edata>
 316:	2499                	jal	55c <bTim_isTimeout>
 318:	dd6d                	beqz	a0,312 <main+0x1c>
 31a:	4585                	li	a1,1
 31c:	40011537          	lui	a0,0x40011
 320:	3f35                	jal	25c <xGPIO_togglePin>
 322:	80818513          	addi	a0,gp,-2040 # 20000028 <_edata>
 326:	2481                	jal	566 <vTim_resetTimer>
 328:	b7ed                	j	312 <main+0x1c>

0000032a <SystemInit>:
 32a:	400217b7          	lui	a5,0x40021
 32e:	4398                	lw	a4,0(a5)
 330:	f0ff06b7          	lui	a3,0xf0ff0
 334:	1141                	addi	sp,sp,-16
 336:	00176713          	ori	a4,a4,1
 33a:	c398                	sw	a4,0(a5)
 33c:	43d8                	lw	a4,4(a5)
 33e:	00020637          	lui	a2,0x20
 342:	8f75                	and	a4,a4,a3
 344:	c3d8                	sw	a4,4(a5)
 346:	4398                	lw	a4,0(a5)
 348:	fef706b7          	lui	a3,0xfef70
 34c:	16fd                	addi	a3,a3,-1
 34e:	8f75                	and	a4,a4,a3
 350:	c398                	sw	a4,0(a5)
 352:	4398                	lw	a4,0(a5)
 354:	fffc06b7          	lui	a3,0xfffc0
 358:	16fd                	addi	a3,a3,-1
 35a:	8f75                	and	a4,a4,a3
 35c:	c398                	sw	a4,0(a5)
 35e:	43d8                	lw	a4,4(a5)
 360:	ff0106b7          	lui	a3,0xff010
 364:	16fd                	addi	a3,a3,-1
 366:	8f75                	and	a4,a4,a3
 368:	c3d8                	sw	a4,4(a5)
 36a:	4398                	lw	a4,0(a5)
 36c:	ec0006b7          	lui	a3,0xec000
 370:	16fd                	addi	a3,a3,-1
 372:	8f75                	and	a4,a4,a3
 374:	c398                	sw	a4,0(a5)
 376:	00ff0737          	lui	a4,0xff0
 37a:	c798                	sw	a4,8(a5)
 37c:	0207a623          	sw	zero,44(a5) # 4002102c <_eusrstack+0x2001902c>
 380:	c402                	sw	zero,8(sp)
 382:	c602                	sw	zero,12(sp)
 384:	4398                	lw	a4,0(a5)
 386:	66c1                	lui	a3,0x10
 388:	8f55                	or	a4,a4,a3
 38a:	c398                	sw	a4,0(a5)
 38c:	400216b7          	lui	a3,0x40021
 390:	6705                	lui	a4,0x1
 392:	429c                	lw	a5,0(a3)
 394:	8ff1                	and	a5,a5,a2
 396:	c63e                	sw	a5,12(sp)
 398:	47a2                	lw	a5,8(sp)
 39a:	0785                	addi	a5,a5,1
 39c:	c43e                	sw	a5,8(sp)
 39e:	47b2                	lw	a5,12(sp)
 3a0:	e781                	bnez	a5,3a8 <SystemInit+0x7e>
 3a2:	47a2                	lw	a5,8(sp)
 3a4:	fee797e3          	bne	a5,a4,392 <SystemInit+0x68>
 3a8:	400217b7          	lui	a5,0x40021
 3ac:	439c                	lw	a5,0(a5)
 3ae:	00e79713          	slli	a4,a5,0xe
 3b2:	06075763          	bgez	a4,420 <SystemInit+0xf6>
 3b6:	4785                	li	a5,1
 3b8:	c63e                	sw	a5,12(sp)
 3ba:	4732                	lw	a4,12(sp)
 3bc:	4785                	li	a5,1
 3be:	04f71f63          	bne	a4,a5,41c <SystemInit+0xf2>
 3c2:	400217b7          	lui	a5,0x40021
 3c6:	43d8                	lw	a4,4(a5)
 3c8:	ffc106b7          	lui	a3,0xffc10
 3cc:	16fd                	addi	a3,a3,-1
 3ce:	c3d8                	sw	a4,4(a5)
 3d0:	43d8                	lw	a4,4(a5)
 3d2:	c3d8                	sw	a4,4(a5)
 3d4:	43d8                	lw	a4,4(a5)
 3d6:	40076713          	ori	a4,a4,1024
 3da:	c3d8                	sw	a4,4(a5)
 3dc:	43d8                	lw	a4,4(a5)
 3de:	8f75                	and	a4,a4,a3
 3e0:	c3d8                	sw	a4,4(a5)
 3e2:	43d8                	lw	a4,4(a5)
 3e4:	002906b7          	lui	a3,0x290
 3e8:	8f55                	or	a4,a4,a3
 3ea:	c3d8                	sw	a4,4(a5)
 3ec:	4398                	lw	a4,0(a5)
 3ee:	010006b7          	lui	a3,0x1000
 3f2:	8f55                	or	a4,a4,a3
 3f4:	c398                	sw	a4,0(a5)
 3f6:	4398                	lw	a4,0(a5)
 3f8:	00671693          	slli	a3,a4,0x6
 3fc:	fe06dde3          	bgez	a3,3f6 <SystemInit+0xcc>
 400:	43d8                	lw	a4,4(a5)
 402:	400216b7          	lui	a3,0x40021
 406:	9b71                	andi	a4,a4,-4
 408:	c3d8                	sw	a4,4(a5)
 40a:	43d8                	lw	a4,4(a5)
 40c:	00276713          	ori	a4,a4,2
 410:	c3d8                	sw	a4,4(a5)
 412:	4721                	li	a4,8
 414:	42dc                	lw	a5,4(a3)
 416:	8bb1                	andi	a5,a5,12
 418:	fee79ee3          	bne	a5,a4,414 <SystemInit+0xea>
 41c:	0141                	addi	sp,sp,16
 41e:	8082                	ret
 420:	c602                	sw	zero,12(sp)
 422:	bf61                	j	3ba <SystemInit+0x90>

00000424 <SystemCoreClockUpdate>:
 424:	400216b7          	lui	a3,0x40021
 428:	42d8                	lw	a4,4(a3)
 42a:	200007b7          	lui	a5,0x20000
 42e:	4611                	li	a2,4
 430:	8b31                	andi	a4,a4,12
 432:	02078793          	addi	a5,a5,32 # 20000020 <SystemCoreClock>
 436:	00c70563          	beq	a4,a2,440 <SystemCoreClockUpdate+0x1c>
 43a:	4621                	li	a2,8
 43c:	02c70863          	beq	a4,a2,46c <SystemCoreClockUpdate+0x48>
 440:	007a1737          	lui	a4,0x7a1
 444:	20070713          	addi	a4,a4,512 # 7a1200 <_data_lma+0x7a0818>
 448:	c398                	sw	a4,0(a5)
 44a:	40021737          	lui	a4,0x40021
 44e:	4358                	lw	a4,4(a4)
 450:	8311                	srli	a4,a4,0x4
 452:	00f77693          	andi	a3,a4,15
 456:	20000737          	lui	a4,0x20000
 45a:	00070713          	mv	a4,a4
 45e:	9736                	add	a4,a4,a3
 460:	2314                	lbu	a3,0(a4)
 462:	4398                	lw	a4,0(a5)
 464:	00d75733          	srl	a4,a4,a3
 468:	c398                	sw	a4,0(a5)
 46a:	8082                	ret
 46c:	42d8                	lw	a4,4(a3)
 46e:	42d4                	lw	a3,4(a3)
 470:	6641                	lui	a2,0x10
 472:	8349                	srli	a4,a4,0x12
 474:	8b3d                	andi	a4,a4,15
 476:	8ef1                	and	a3,a3,a2
 478:	00270613          	addi	a2,a4,2 # 20000002 <_data_vma+0x2>
 47c:	cf15                	beqz	a4,4b8 <SystemCoreClockUpdate+0x94>
 47e:	473d                	li	a4,15
 480:	02e60f63          	beq	a2,a4,4be <SystemCoreClockUpdate+0x9a>
 484:	4741                	li	a4,16
 486:	02e60f63          	beq	a2,a4,4c4 <SystemCoreClockUpdate+0xa0>
 48a:	4745                	li	a4,17
 48c:	4581                	li	a1,0
 48e:	00e61363          	bne	a2,a4,494 <SystemCoreClockUpdate+0x70>
 492:	4641                	li	a2,16
 494:	e2a1                	bnez	a3,4d4 <SystemCoreClockUpdate+0xb0>
 496:	40024737          	lui	a4,0x40024
 49a:	80072703          	lw	a4,-2048(a4) # 40023800 <_eusrstack+0x2001b800>
 49e:	8b41                	andi	a4,a4,16
 4a0:	c70d                	beqz	a4,4ca <SystemCoreClockUpdate+0xa6>
 4a2:	007a1737          	lui	a4,0x7a1
 4a6:	20070713          	addi	a4,a4,512 # 7a1200 <_data_lma+0x7a0818>
 4aa:	02c70633          	mul	a2,a4,a2
 4ae:	c390                	sw	a2,0(a5)
 4b0:	ddc9                	beqz	a1,44a <SystemCoreClockUpdate+0x26>
 4b2:	4398                	lw	a4,0(a5)
 4b4:	8305                	srli	a4,a4,0x1
 4b6:	bf49                	j	448 <SystemCoreClockUpdate+0x24>
 4b8:	4581                	li	a1,0
 4ba:	4649                	li	a2,18
 4bc:	bfe1                	j	494 <SystemCoreClockUpdate+0x70>
 4be:	4585                	li	a1,1
 4c0:	4635                	li	a2,13
 4c2:	bfc9                	j	494 <SystemCoreClockUpdate+0x70>
 4c4:	4581                	li	a1,0
 4c6:	463d                	li	a2,15
 4c8:	b7f1                	j	494 <SystemCoreClockUpdate+0x70>
 4ca:	003d1737          	lui	a4,0x3d1
 4ce:	90070713          	addi	a4,a4,-1792 # 3d0900 <_data_lma+0x3cff18>
 4d2:	bfe1                	j	4aa <SystemCoreClockUpdate+0x86>
 4d4:	40021537          	lui	a0,0x40021
 4d8:	5558                	lw	a4,44(a0)
 4da:	00f71693          	slli	a3,a4,0xf
 4de:	5558                	lw	a4,44(a0)
 4e0:	0406df63          	bgez	a3,53e <SystemCoreClockUpdate+0x11a>
 4e4:	8311                	srli	a4,a4,0x4
 4e6:	8b3d                	andi	a4,a4,15
 4e8:	00170693          	addi	a3,a4,1
 4ec:	007a1737          	lui	a4,0x7a1
 4f0:	20070713          	addi	a4,a4,512 # 7a1200 <_data_lma+0x7a0818>
 4f4:	02d75733          	divu	a4,a4,a3
 4f8:	c398                	sw	a4,0(a5)
 4fa:	5554                	lw	a3,44(a0)
 4fc:	82a1                	srli	a3,a3,0x8
 4fe:	8abd                	andi	a3,a3,15
 500:	e28d                	bnez	a3,522 <SystemCoreClockUpdate+0xfe>
 502:	4695                	li	a3,5
 504:	02d70733          	mul	a4,a4,a3
 508:	8305                	srli	a4,a4,0x1
 50a:	c398                	sw	a4,0(a5)
 50c:	40021737          	lui	a4,0x40021
 510:	5758                	lw	a4,44(a4)
 512:	4394                	lw	a3,0(a5)
 514:	8b3d                	andi	a4,a4,15
 516:	0705                	addi	a4,a4,1
 518:	02e6d733          	divu	a4,a3,a4
 51c:	c398                	sw	a4,0(a5)
 51e:	4398                	lw	a4,0(a5)
 520:	b769                	j	4aa <SystemCoreClockUpdate+0x86>
 522:	4505                	li	a0,1
 524:	00a69463          	bne	a3,a0,52c <SystemCoreClockUpdate+0x108>
 528:	46e5                	li	a3,25
 52a:	bfe9                	j	504 <SystemCoreClockUpdate+0xe0>
 52c:	453d                	li	a0,15
 52e:	00a69663          	bne	a3,a0,53a <SystemCoreClockUpdate+0x116>
 532:	46d1                	li	a3,20
 534:	02e68733          	mul	a4,a3,a4
 538:	bfc9                	j	50a <SystemCoreClockUpdate+0xe6>
 53a:	0689                	addi	a3,a3,2
 53c:	bfe5                	j	534 <SystemCoreClockUpdate+0x110>
 53e:	8b3d                	andi	a4,a4,15
 540:	00170693          	addi	a3,a4,1 # 40021001 <_eusrstack+0x20019001>
 544:	007a1737          	lui	a4,0x7a1
 548:	20070713          	addi	a4,a4,512 # 7a1200 <_data_lma+0x7a0818>
 54c:	02d75733          	divu	a4,a4,a3
 550:	b7f1                	j	51c <SystemCoreClockUpdate+0xf8>

00000552 <bTim_isRunning>:
 552:	4148                	lw	a0,4(a0)
 554:	157d                	addi	a0,a0,-1
 556:	00153513          	seqz	a0,a0
 55a:	8082                	ret

0000055c <bTim_isTimeout>:
 55c:	4148                	lw	a0,4(a0)
 55e:	1579                	addi	a0,a0,-2
 560:	00153513          	seqz	a0,a0
 564:	8082                	ret

00000566 <vTim_resetTimer>:
 566:	4785                	li	a5,1
 568:	00051023          	sh	zero,0(a0) # 40021000 <_eusrstack+0x20019000>
 56c:	c15c                	sw	a5,4(a0)
 56e:	8082                	ret

00000570 <vTim_startTimer>:
 570:	4785                	li	a5,1
 572:	c15c                	sw	a5,4(a0)
 574:	8082                	ret

00000576 <vTim_updateCounter>:
 576:	211e                	lhu	a5,0(a0)
 578:	213a                	lhu	a4,2(a0)
 57a:	0785                	addi	a5,a5,1
 57c:	07c2                	slli	a5,a5,0x10
 57e:	83c1                	srli	a5,a5,0x10
 580:	a11e                	sh	a5,0(a0)
 582:	00f71463          	bne	a4,a5,58a <vTim_updateCounter+0x14>
 586:	4789                	li	a5,2
 588:	c15c                	sw	a5,4(a0)
 58a:	8082                	ret

0000058c <vTim_setTimeout>:
 58c:	a12e                	sh	a1,2(a0)
 58e:	8082                	ret

00000590 <vTim_sysTickInit>:
 590:	e000f7b7          	lui	a5,0xe000f
 594:	43d8                	lw	a4,4(a5)
 596:	3e800593          	li	a1,1000
 59a:	4681                	li	a3,0
 59c:	9b79                	andi	a4,a4,-2
 59e:	c3d8                	sw	a4,4(a5)
 5a0:	20000737          	lui	a4,0x20000
 5a4:	02072703          	lw	a4,32(a4) # 20000020 <SystemCoreClock>
 5a8:	177d                	addi	a4,a4,-1
 5aa:	02b75633          	divu	a2,a4,a1
 5ae:	4701                	li	a4,0
 5b0:	cb90                	sw	a2,16(a5)
 5b2:	cbd4                	sw	a3,20(a5)
 5b4:	4681                	li	a3,0
 5b6:	c794                	sw	a3,8(a5)
 5b8:	c7d8                	sw	a4,12(a5)
 5ba:	473d                	li	a4,15
 5bc:	c398                	sw	a4,0(a5)
 5be:	e000e7b7          	lui	a5,0xe000e
 5c2:	40e78623          	sb	a4,1036(a5) # e000e40c <_eusrstack+0xc000640c>
 5c6:	6705                	lui	a4,0x1
 5c8:	10e7a023          	sw	a4,256(a5)
 5cc:	8082                	ret

000005ce <ADC1_2_IRQHandler>:
 5ce:	a001                	j	5ce <ADC1_2_IRQHandler>

000005d0 <handle_reset>:
 5d0:	20000197          	auipc	gp,0x20000
 5d4:	25018193          	addi	gp,gp,592 # 20000820 <__global_pointer$>
 5d8:	20008117          	auipc	sp,0x20008
 5dc:	a2810113          	addi	sp,sp,-1496 # 20008000 <_eusrstack>
 5e0:	00000517          	auipc	a0,0x0
 5e4:	40850513          	addi	a0,a0,1032 # 9e8 <_data_lma>
 5e8:	20000597          	auipc	a1,0x20000
 5ec:	a1858593          	addi	a1,a1,-1512 # 20000000 <_data_vma>
 5f0:	80818613          	addi	a2,gp,-2040 # 20000028 <_edata>
 5f4:	00c5fa63          	bgeu	a1,a2,608 <handle_reset+0x38>
 5f8:	00052283          	lw	t0,0(a0)
 5fc:	0055a023          	sw	t0,0(a1)
 600:	0511                	addi	a0,a0,4
 602:	0591                	addi	a1,a1,4
 604:	fec5eae3          	bltu	a1,a2,5f8 <handle_reset+0x28>
 608:	80818513          	addi	a0,gp,-2040 # 20000028 <_edata>
 60c:	81818593          	addi	a1,gp,-2024 # 20000038 <_ebss>
 610:	00b57763          	bgeu	a0,a1,61e <handle_reset+0x4e>
 614:	00052023          	sw	zero,0(a0)
 618:	0511                	addi	a0,a0,4
 61a:	feb56de3          	bltu	a0,a1,614 <handle_reset+0x44>
 61e:	42fd                	li	t0,31
 620:	bc029073          	csrw	0xbc0,t0
 624:	42ad                	li	t0,11
 626:	80429073          	csrw	0x804,t0
 62a:	000062b7          	lui	t0,0x6
 62e:	08828293          	addi	t0,t0,136 # 6088 <_data_lma+0x56a0>
 632:	30029073          	csrw	mstatus,t0
 636:	00000297          	auipc	t0,0x0
 63a:	9ce28293          	addi	t0,t0,-1586 # 4 <_einit>
 63e:	0032e293          	ori	t0,t0,3
 642:	30529073          	csrw	mtvec,t0
 646:	ce5ff0ef          	jal	ra,32a <SystemInit>
 64a:	00000297          	auipc	t0,0x0
 64e:	cac28293          	addi	t0,t0,-852 # 2f6 <main>
 652:	34129073          	csrw	mepc,t0
 656:	30200073          	mret

0000065a <GPIO_Init>:
 65a:	459c                	lw	a5,8(a1)
 65c:	0107f713          	andi	a4,a5,16
 660:	00f7f813          	andi	a6,a5,15
 664:	c701                	beqz	a4,66c <GPIO_Init+0x12>
 666:	41d8                	lw	a4,4(a1)
 668:	00e86833          	or	a6,a6,a4
 66c:	218e                	lhu	a1,0(a1)
 66e:	0ff5f713          	andi	a4,a1,255
 672:	c339                	beqz	a4,6b8 <GPIO_Init+0x5e>
 674:	4118                	lw	a4,0(a0)
 676:	4681                	li	a3,0
 678:	4e85                	li	t4,1
 67a:	4f3d                	li	t5,15
 67c:	02800f93          	li	t6,40
 680:	04800293          	li	t0,72
 684:	4e21                	li	t3,8
 686:	00de9633          	sll	a2,t4,a3
 68a:	00c5f8b3          	and	a7,a1,a2
 68e:	03161163          	bne	a2,a7,6b0 <GPIO_Init+0x56>
 692:	00269893          	slli	a7,a3,0x2
 696:	011f1333          	sll	t1,t5,a7
 69a:	fff34313          	not	t1,t1
 69e:	00e37733          	and	a4,t1,a4
 6a2:	011818b3          	sll	a7,a6,a7
 6a6:	00e8e733          	or	a4,a7,a4
 6aa:	05f79f63          	bne	a5,t6,708 <GPIO_Init+0xae>
 6ae:	c950                	sw	a2,20(a0)
 6b0:	0685                	addi	a3,a3,1
 6b2:	fdc69ae3          	bne	a3,t3,686 <GPIO_Init+0x2c>
 6b6:	c118                	sw	a4,0(a0)
 6b8:	0ff00713          	li	a4,255
 6bc:	04b77563          	bgeu	a4,a1,706 <GPIO_Init+0xac>
 6c0:	4154                	lw	a3,4(a0)
 6c2:	4621                	li	a2,8
 6c4:	4e85                	li	t4,1
 6c6:	4f3d                	li	t5,15
 6c8:	02800f93          	li	t6,40
 6cc:	04800293          	li	t0,72
 6d0:	4e41                	li	t3,16
 6d2:	00ce98b3          	sll	a7,t4,a2
 6d6:	0115f733          	and	a4,a1,a7
 6da:	02e89263          	bne	a7,a4,6fe <GPIO_Init+0xa4>
 6de:	00261713          	slli	a4,a2,0x2
 6e2:	1701                	addi	a4,a4,-32
 6e4:	00ef1333          	sll	t1,t5,a4
 6e8:	fff34313          	not	t1,t1
 6ec:	00d376b3          	and	a3,t1,a3
 6f0:	00e81733          	sll	a4,a6,a4
 6f4:	8ed9                	or	a3,a3,a4
 6f6:	01f79d63          	bne	a5,t6,710 <GPIO_Init+0xb6>
 6fa:	01152a23          	sw	a7,20(a0)
 6fe:	0605                	addi	a2,a2,1
 700:	fdc619e3          	bne	a2,t3,6d2 <GPIO_Init+0x78>
 704:	c154                	sw	a3,4(a0)
 706:	8082                	ret
 708:	fa5794e3          	bne	a5,t0,6b0 <GPIO_Init+0x56>
 70c:	c910                	sw	a2,16(a0)
 70e:	b74d                	j	6b0 <GPIO_Init+0x56>
 710:	fe5797e3          	bne	a5,t0,6fe <GPIO_Init+0xa4>
 714:	01152823          	sw	a7,16(a0)
 718:	b7dd                	j	6fe <GPIO_Init+0xa4>

0000071a <GPIO_ReadOutputDataBit>:
 71a:	4548                	lw	a0,12(a0)
 71c:	8d6d                	and	a0,a0,a1
 71e:	00a03533          	snez	a0,a0
 722:	8082                	ret

00000724 <GPIO_WriteBit>:
 724:	c219                	beqz	a2,72a <GPIO_WriteBit+0x6>
 726:	c90c                	sw	a1,16(a0)
 728:	8082                	ret
 72a:	c94c                	sw	a1,20(a0)
 72c:	8082                	ret

0000072e <NVIC_PriorityGroupConfig>:
 72e:	80a1a823          	sw	a0,-2032(gp) # 20000030 <NVIC_Priority_Group>
 732:	8082                	ret

00000734 <RCC_GetClocksFreq>:
 734:	40021737          	lui	a4,0x40021
 738:	435c                	lw	a5,4(a4)
 73a:	4691                	li	a3,4
 73c:	8bb1                	andi	a5,a5,12
 73e:	00d78563          	beq	a5,a3,748 <RCC_GetClocksFreq+0x14>
 742:	46a1                	li	a3,8
 744:	06d78263          	beq	a5,a3,7a8 <RCC_GetClocksFreq+0x74>
 748:	007a17b7          	lui	a5,0x7a1
 74c:	20078793          	addi	a5,a5,512 # 7a1200 <_data_lma+0x7a0818>
 750:	c11c                	sw	a5,0(a0)
 752:	40021637          	lui	a2,0x40021
 756:	425c                	lw	a5,4(a2)
 758:	20000737          	lui	a4,0x20000
 75c:	01070713          	addi	a4,a4,16 # 20000010 <APBAHBPrescTable>
 760:	8391                	srli	a5,a5,0x4
 762:	8bbd                	andi	a5,a5,15
 764:	97ba                	add	a5,a5,a4
 766:	2394                	lbu	a3,0(a5)
 768:	411c                	lw	a5,0(a0)
 76a:	00d7d7b3          	srl	a5,a5,a3
 76e:	c15c                	sw	a5,4(a0)
 770:	4254                	lw	a3,4(a2)
 772:	82a1                	srli	a3,a3,0x8
 774:	8a9d                	andi	a3,a3,7
 776:	96ba                	add	a3,a3,a4
 778:	2294                	lbu	a3,0(a3)
 77a:	00d7d6b3          	srl	a3,a5,a3
 77e:	c514                	sw	a3,8(a0)
 780:	4254                	lw	a3,4(a2)
 782:	82ad                	srli	a3,a3,0xb
 784:	8a9d                	andi	a3,a3,7
 786:	9736                	add	a4,a4,a3
 788:	2318                	lbu	a4,0(a4)
 78a:	00e7d7b3          	srl	a5,a5,a4
 78e:	c55c                	sw	a5,12(a0)
 790:	4258                	lw	a4,4(a2)
 792:	8339                	srli	a4,a4,0xe
 794:	00377693          	andi	a3,a4,3
 798:	80418713          	addi	a4,gp,-2044 # 20000024 <ADCPrescTable>
 79c:	9736                	add	a4,a4,a3
 79e:	2318                	lbu	a4,0(a4)
 7a0:	02e7d7b3          	divu	a5,a5,a4
 7a4:	c91c                	sw	a5,16(a0)
 7a6:	8082                	ret
 7a8:	435c                	lw	a5,4(a4)
 7aa:	4358                	lw	a4,4(a4)
 7ac:	66c1                	lui	a3,0x10
 7ae:	83c9                	srli	a5,a5,0x12
 7b0:	8f75                	and	a4,a4,a3
 7b2:	1ffff6b7          	lui	a3,0x1ffff
 7b6:	70c6a683          	lw	a3,1804(a3) # 1ffff70c <_data_lma+0x1fffed24>
 7ba:	8bbd                	andi	a5,a5,15
 7bc:	0789                	addi	a5,a5,2
 7be:	01169613          	slli	a2,a3,0x11
 7c2:	00064863          	bltz	a2,7d2 <RCC_GetClocksFreq+0x9e>
 7c6:	46c5                	li	a3,17
 7c8:	4601                	li	a2,0
 7ca:	02d79263          	bne	a5,a3,7ee <RCC_GetClocksFreq+0xba>
 7ce:	47c9                	li	a5,18
 7d0:	a839                	j	7ee <RCC_GetClocksFreq+0xba>
 7d2:	4689                	li	a3,2
 7d4:	02d78f63          	beq	a5,a3,812 <__stack_size+0x12>
 7d8:	46bd                	li	a3,15
 7da:	02d78e63          	beq	a5,a3,816 <__stack_size+0x16>
 7de:	46c1                	li	a3,16
 7e0:	02d78e63          	beq	a5,a3,81c <__stack_size+0x1c>
 7e4:	46c5                	li	a3,17
 7e6:	4601                	li	a2,0
 7e8:	00d79363          	bne	a5,a3,7ee <RCC_GetClocksFreq+0xba>
 7ec:	47c1                	li	a5,16
 7ee:	ef1d                	bnez	a4,82c <__stack_size+0x2c>
 7f0:	40024737          	lui	a4,0x40024
 7f4:	80072703          	lw	a4,-2048(a4) # 40023800 <_eusrstack+0x2001b800>
 7f8:	8b41                	andi	a4,a4,16
 7fa:	c705                	beqz	a4,822 <__stack_size+0x22>
 7fc:	007a1737          	lui	a4,0x7a1
 800:	20070713          	addi	a4,a4,512 # 7a1200 <_data_lma+0x7a0818>
 804:	02f707b3          	mul	a5,a4,a5
 808:	c11c                	sw	a5,0(a0)
 80a:	d621                	beqz	a2,752 <RCC_GetClocksFreq+0x1e>
 80c:	411c                	lw	a5,0(a0)
 80e:	8385                	srli	a5,a5,0x1
 810:	b781                	j	750 <RCC_GetClocksFreq+0x1c>
 812:	4601                	li	a2,0
 814:	bf6d                	j	7ce <RCC_GetClocksFreq+0x9a>
 816:	4605                	li	a2,1
 818:	47b5                	li	a5,13
 81a:	bfd1                	j	7ee <RCC_GetClocksFreq+0xba>
 81c:	4601                	li	a2,0
 81e:	47bd                	li	a5,15
 820:	b7f9                	j	7ee <RCC_GetClocksFreq+0xba>
 822:	003d1737          	lui	a4,0x3d1
 826:	90070713          	addi	a4,a4,-1792 # 3d0900 <_data_lma+0x3cff18>
 82a:	bfe9                	j	804 <__stack_size+0x4>
 82c:	400215b7          	lui	a1,0x40021
 830:	55d8                	lw	a4,44(a1)
 832:	00f71693          	slli	a3,a4,0xf
 836:	55d8                	lw	a4,44(a1)
 838:	0406df63          	bgez	a3,896 <__stack_size+0x96>
 83c:	8311                	srli	a4,a4,0x4
 83e:	8b3d                	andi	a4,a4,15
 840:	00170693          	addi	a3,a4,1
 844:	007a1737          	lui	a4,0x7a1
 848:	20070713          	addi	a4,a4,512 # 7a1200 <_data_lma+0x7a0818>
 84c:	02d75733          	divu	a4,a4,a3
 850:	c118                	sw	a4,0(a0)
 852:	55d4                	lw	a3,44(a1)
 854:	82a1                	srli	a3,a3,0x8
 856:	8abd                	andi	a3,a3,15
 858:	e28d                	bnez	a3,87a <__stack_size+0x7a>
 85a:	4695                	li	a3,5
 85c:	02d70733          	mul	a4,a4,a3
 860:	8305                	srli	a4,a4,0x1
 862:	c118                	sw	a4,0(a0)
 864:	40021737          	lui	a4,0x40021
 868:	5758                	lw	a4,44(a4)
 86a:	4114                	lw	a3,0(a0)
 86c:	8b3d                	andi	a4,a4,15
 86e:	0705                	addi	a4,a4,1
 870:	02e6d733          	divu	a4,a3,a4
 874:	c118                	sw	a4,0(a0)
 876:	4118                	lw	a4,0(a0)
 878:	b771                	j	804 <__stack_size+0x4>
 87a:	4585                	li	a1,1
 87c:	00b69463          	bne	a3,a1,884 <__stack_size+0x84>
 880:	46e5                	li	a3,25
 882:	bfe9                	j	85c <__stack_size+0x5c>
 884:	45bd                	li	a1,15
 886:	00b69663          	bne	a3,a1,892 <__stack_size+0x92>
 88a:	46d1                	li	a3,20
 88c:	02e68733          	mul	a4,a3,a4
 890:	bfc9                	j	862 <__stack_size+0x62>
 892:	0689                	addi	a3,a3,2
 894:	bfe5                	j	88c <__stack_size+0x8c>
 896:	8b3d                	andi	a4,a4,15
 898:	00170693          	addi	a3,a4,1 # 40021001 <_eusrstack+0x20019001>
 89c:	007a1737          	lui	a4,0x7a1
 8a0:	20070713          	addi	a4,a4,512 # 7a1200 <_data_lma+0x7a0818>
 8a4:	02d75733          	divu	a4,a4,a3
 8a8:	b7f1                	j	874 <__stack_size+0x74>

000008aa <RCC_APB2PeriphClockCmd>:
 8aa:	c599                	beqz	a1,8b8 <RCC_APB2PeriphClockCmd+0xe>
 8ac:	40021737          	lui	a4,0x40021
 8b0:	4f1c                	lw	a5,24(a4)
 8b2:	8d5d                	or	a0,a0,a5
 8b4:	cf08                	sw	a0,24(a4)
 8b6:	8082                	ret
 8b8:	400217b7          	lui	a5,0x40021
 8bc:	4f98                	lw	a4,24(a5)
 8be:	fff54513          	not	a0,a0
 8c2:	8d79                	and	a0,a0,a4
 8c4:	cf88                	sw	a0,24(a5)
 8c6:	8082                	ret

000008c8 <USART_Init>:
 8c8:	929ff2ef          	jal	t0,1f0 <__riscv_save_0>
 8cc:	2916                	lhu	a3,16(a0)
 8ce:	77f5                	lui	a5,0xffffd
 8d0:	17fd                	addi	a5,a5,-1
 8d2:	8ff5                	and	a5,a5,a3
 8d4:	21f6                	lhu	a3,6(a1)
 8d6:	25da                	lhu	a4,12(a1)
 8d8:	7179                	addi	sp,sp,-48
 8da:	8fd5                	or	a5,a5,a3
 8dc:	a91e                	sh	a5,16(a0)
 8de:	2556                	lhu	a3,12(a0)
 8e0:	77fd                	lui	a5,0xfffff
 8e2:	9f378793          	addi	a5,a5,-1549 # ffffe9f3 <_eusrstack+0xdfff69f3>
 8e6:	8ff5                	and	a5,a5,a3
 8e8:	21d6                	lhu	a3,4(a1)
 8ea:	842a                	mv	s0,a0
 8ec:	c62e                	sw	a1,12(sp)
 8ee:	8fd5                	or	a5,a5,a3
 8f0:	2596                	lhu	a3,8(a1)
 8f2:	8fd5                	or	a5,a5,a3
 8f4:	25b6                	lhu	a3,10(a1)
 8f6:	8fd5                	or	a5,a5,a3
 8f8:	a55e                	sh	a5,12(a0)
 8fa:	295e                	lhu	a5,20(a0)
 8fc:	07c2                	slli	a5,a5,0x10
 8fe:	83c1                	srli	a5,a5,0x10
 900:	cff7f793          	andi	a5,a5,-769
 904:	8fd9                	or	a5,a5,a4
 906:	a95e                	sh	a5,20(a0)
 908:	0868                	addi	a0,sp,28
 90a:	352d                	jal	734 <RCC_GetClocksFreq>
 90c:	400147b7          	lui	a5,0x40014
 910:	80078793          	addi	a5,a5,-2048 # 40013800 <_eusrstack+0x2000b800>
 914:	45b2                	lw	a1,12(sp)
 916:	02f41d63          	bne	s0,a5,950 <USART_Init+0x88>
 91a:	57a2                	lw	a5,40(sp)
 91c:	4765                	li	a4,25
 91e:	02e787b3          	mul	a5,a5,a4
 922:	4198                	lw	a4,0(a1)
 924:	06400693          	li	a3,100
 928:	070a                	slli	a4,a4,0x2
 92a:	02e7d7b3          	divu	a5,a5,a4
 92e:	02d7d733          	divu	a4,a5,a3
 932:	02d7f7b3          	remu	a5,a5,a3
 936:	0712                	slli	a4,a4,0x4
 938:	0792                	slli	a5,a5,0x4
 93a:	03278793          	addi	a5,a5,50
 93e:	02d7d7b3          	divu	a5,a5,a3
 942:	8bbd                	andi	a5,a5,15
 944:	8fd9                	or	a5,a5,a4
 946:	07c2                	slli	a5,a5,0x10
 948:	83c1                	srli	a5,a5,0x10
 94a:	a41e                	sh	a5,8(s0)
 94c:	6145                	addi	sp,sp,48
 94e:	b0d9                	j	214 <__riscv_restore_0>
 950:	5792                	lw	a5,36(sp)
 952:	b7e9                	j	91c <USART_Init+0x54>

00000954 <USART_Cmd>:
 954:	c591                	beqz	a1,960 <USART_Cmd+0xc>
 956:	255e                	lhu	a5,12(a0)
 958:	6709                	lui	a4,0x2
 95a:	8fd9                	or	a5,a5,a4
 95c:	a55e                	sh	a5,12(a0)
 95e:	8082                	ret
 960:	255a                	lhu	a4,12(a0)
 962:	77f9                	lui	a5,0xffffe
 964:	17fd                	addi	a5,a5,-1
 966:	8ff9                	and	a5,a5,a4
 968:	bfd5                	j	95c <USART_Cmd+0x8>

0000096a <Delay_Init>:
 96a:	200007b7          	lui	a5,0x20000
 96e:	0207a783          	lw	a5,32(a5) # 20000020 <SystemCoreClock>
 972:	007a1737          	lui	a4,0x7a1
 976:	20070713          	addi	a4,a4,512 # 7a1200 <_data_lma+0x7a0818>
 97a:	02e7d7b3          	divu	a5,a5,a4
 97e:	0ff7f793          	andi	a5,a5,255
 982:	80f18b23          	sb	a5,-2026(gp) # 20000036 <p_us>
 986:	3e800713          	li	a4,1000
 98a:	02e787b3          	mul	a5,a5,a4
 98e:	80f19a23          	sh	a5,-2028(gp) # 20000034 <p_ms>
 992:	8082                	ret

00000994 <USART_Printf_Init>:
 994:	85dff2ef          	jal	t0,1f0 <__riscv_save_0>
 998:	842a                	mv	s0,a0
 99a:	6511                	lui	a0,0x4
 99c:	1101                	addi	sp,sp,-32
 99e:	4585                	li	a1,1
 9a0:	0511                	addi	a0,a0,4
 9a2:	3721                	jal	8aa <RCC_APB2PeriphClockCmd>
 9a4:	20000793          	li	a5,512
 9a8:	827c                	sh	a5,4(sp)
 9aa:	40011537          	lui	a0,0x40011
 9ae:	478d                	li	a5,3
 9b0:	c43e                	sw	a5,8(sp)
 9b2:	004c                	addi	a1,sp,4
 9b4:	47e1                	li	a5,24
 9b6:	80050513          	addi	a0,a0,-2048 # 40010800 <_eusrstack+0x20008800>
 9ba:	c63e                	sw	a5,12(sp)
 9bc:	3979                	jal	65a <GPIO_Init>
 9be:	c822                	sw	s0,16(sp)
 9c0:	40014437          	lui	s0,0x40014
 9c4:	000807b7          	lui	a5,0x80
 9c8:	080c                	addi	a1,sp,16
 9ca:	80040513          	addi	a0,s0,-2048 # 40013800 <_eusrstack+0x2000b800>
 9ce:	cc3e                	sw	a5,24(sp)
 9d0:	ca02                	sw	zero,20(sp)
 9d2:	00011e23          	sh	zero,28(sp)
 9d6:	3dcd                	jal	8c8 <USART_Init>
 9d8:	4585                	li	a1,1
 9da:	80040513          	addi	a0,s0,-2048
 9de:	3f9d                	jal	954 <USART_Cmd>
 9e0:	6105                	addi	sp,sp,32
 9e2:	833ff06f          	j	214 <__riscv_restore_0>
	...
